target datalayout = "e-m:e-p270:32:32-p271:32:32-p272:64:64-i64:64-i128:128-f80:128-n8:16:32:64-S128"
target triple = "x86_64-pc-linux-gnu"

%struct.LodePNGCompressSettings = type { i32, i32, i32, i32, i32, i32, ptr, ptr, ptr }

; Function Attrs: mustprogress nounwind uwtable
define internal noundef i32 @_ZL14update_adler32jPKhj(i32 noundef %0, ptr noundef %1, i32 noundef %2) #3 {
  %4 = alloca i32, align 4
  %5 = alloca ptr, align 8
  %6 = alloca i32, align 4
  %7 = alloca i32, align 4
  %8 = alloca i32, align 4
  %9 = alloca i32, align 4
  %10 = alloca i32, align 4
  store i32 %0, ptr %4, align 4, !tbaa !15
  store ptr %1, ptr %5, align 8, !tbaa !11
  store i32 %2, ptr %6, align 4, !tbaa !15
  call void @llvm.lifetime.start.p0(i64 4, ptr %7) #17
  %11 = load i32, ptr %4, align 4, !tbaa !15
  %12 = and i32 %11, 65535
  store i32 %12, ptr %7, align 4, !tbaa !15
  call void @llvm.lifetime.start.p0(i64 4, ptr %8) #17
  %13 = load i32, ptr %4, align 4, !tbaa !15
  %14 = lshr i32 %13, 16
  %15 = and i32 %14, 65535
  store i32 %15, ptr %8, align 4, !tbaa !15
  br label %16

16:                                               ; preds = %47, %3
  %17 = load i32, ptr %6, align 4, !tbaa !15
  %18 = icmp ne i32 %17, 0
  br i1 %18, label %19, label %52

19:                                               ; preds = %16
  call void @llvm.lifetime.start.p0(i64 4, ptr %9) #17
  call void @llvm.lifetime.start.p0(i64 4, ptr %10) #17
  %20 = load i32, ptr %6, align 4, !tbaa !15
  %21 = icmp ugt i32 %20, 5552
  br i1 %21, label %22, label %23

22:                                               ; preds = %19
  br label %25

23:                                               ; preds = %19
  %24 = load i32, ptr %6, align 4, !tbaa !15
  br label %25

25:                                               ; preds = %23, %22
  %26 = phi i32 [ 5552, %22 ], [ %24, %23 ]
  store i32 %26, ptr %10, align 4, !tbaa !15
  %27 = load i32, ptr %10, align 4, !tbaa !15
  %28 = load i32, ptr %6, align 4, !tbaa !15
  %29 = sub i32 %28, %27
  store i32 %29, ptr %6, align 4, !tbaa !15
  store i32 0, ptr %9, align 4, !tbaa !15
  br label %30

30:                                               ; preds = %44, %25
  %31 = load i32, ptr %9, align 4, !tbaa !15
  %32 = load i32, ptr %10, align 4, !tbaa !15
  %33 = icmp ne i32 %31, %32
  br i1 %33, label %34, label %47

34:                                               ; preds = %30
  %35 = load ptr, ptr %5, align 8, !tbaa !11
  %36 = getelementptr inbounds nuw i8, ptr %35, i32 1
  store ptr %36, ptr %5, align 8, !tbaa !11
  %37 = load i8, ptr %35, align 1, !tbaa !45
  %38 = zext i8 %37 to i32
  %39 = load i32, ptr %7, align 4, !tbaa !15
  %40 = add i32 %39, %38
  store i32 %40, ptr %7, align 4, !tbaa !15
  %41 = load i32, ptr %7, align 4, !tbaa !15
  %42 = load i32, ptr %8, align 4, !tbaa !15
  %43 = add i32 %42, %41
  store i32 %43, ptr %8, align 4, !tbaa !15
  br label %44

44:                                               ; preds = %34
  %45 = load i32, ptr %9, align 4, !tbaa !15
  %46 = add i32 %45, 1
  store i32 %46, ptr %9, align 4, !tbaa !15
  br label %30, !llvm.loop !435

47:                                               ; preds = %30
  %48 = load i32, ptr %7, align 4, !tbaa !15
  %49 = urem i32 %48, 65521
  store i32 %49, ptr %7, align 4, !tbaa !15
  %50 = load i32, ptr %8, align 4, !tbaa !15
  %51 = urem i32 %50, 65521
  store i32 %51, ptr %8, align 4, !tbaa !15
  call void @llvm.lifetime.end.p0(i64 4, ptr %10) #17
  call void @llvm.lifetime.end.p0(i64 4, ptr %9) #17
  br label %16, !llvm.loop !436

52:                                               ; preds = %16
  %53 = load i32, ptr %8, align 4, !tbaa !15
  %54 = shl i32 %53, 16
  %55 = load i32, ptr %7, align 4, !tbaa !15
  %56 = or i32 %54, %55
  call void @llvm.lifetime.end.p0(i64 4, ptr %8) #17
  call void @llvm.lifetime.end.p0(i64 4, ptr %7) #17
  ret i32 %56
}

; Function Attrs: mustprogress nounwind uwtable
define internal void @_ZL12lodepng_freePv(ptr noundef %0) #3 {
  %2 = alloca ptr, align 8
  store ptr %0, ptr %2, align 8, !tbaa !44
  %3 = load ptr, ptr %2, align 8, !tbaa !44
  call void @free(ptr noundef %3) #17
  ret void
}

; Function Attrs: mustprogress nounwind uwtable
define internal void @_ZL19lodepng_set32bitIntPhj(ptr noundef %0, i32 noundef %1) #3 {
  %3 = alloca ptr, align 8
  %4 = alloca i32, align 4
  store ptr %0, ptr %3, align 8, !tbaa !11
  store i32 %1, ptr %4, align 4, !tbaa !15
  %5 = load i32, ptr %4, align 4, !tbaa !15
  %6 = lshr i32 %5, 24
  %7 = and i32 %6, 255
  %8 = trunc i32 %7 to i8
  %9 = load ptr, ptr %3, align 8, !tbaa !11
  %10 = getelementptr inbounds i8, ptr %9, i64 0
  store i8 %8, ptr %10, align 1, !tbaa !45
  %11 = load i32, ptr %4, align 4, !tbaa !15
  %12 = lshr i32 %11, 16
  %13 = and i32 %12, 255
  %14 = trunc i32 %13 to i8
  %15 = load ptr, ptr %3, align 8, !tbaa !11
  %16 = getelementptr inbounds i8, ptr %15, i64 1
  store i8 %14, ptr %16, align 1, !tbaa !45
  %17 = load i32, ptr %4, align 4, !tbaa !15
  %18 = lshr i32 %17, 8
  %19 = and i32 %18, 255
  %20 = trunc i32 %19 to i8
  %21 = load ptr, ptr %3, align 8, !tbaa !11
  %22 = getelementptr inbounds i8, ptr %21, i64 2
  store i8 %20, ptr %22, align 1, !tbaa !45
  %23 = load i32, ptr %4, align 4, !tbaa !15
  %24 = and i32 %23, 255
  %25 = trunc i32 %24 to i8
  %26 = load ptr, ptr %3, align 8, !tbaa !11
  %27 = getelementptr inbounds i8, ptr %26, i64 3
  store i8 %25, ptr %27, align 1, !tbaa !45
  ret void
}

; Function Attrs: mustprogress uwtable
define internal noundef i32 @_ZL7adler32PKhj(ptr noundef %0, i32 noundef %1) #0 {
  %3 = alloca ptr, align 8
  %4 = alloca i32, align 4
  store ptr %0, ptr %3, align 8, !tbaa !11
  store i32 %1, ptr %4, align 4, !tbaa !15
  %5 = load ptr, ptr %3, align 8, !tbaa !11
  %6 = load i32, ptr %4, align 4, !tbaa !15
  %7 = call noundef i32 @_ZL14update_adler32jPKhj(i32 noundef 1, ptr noundef %5, i32 noundef %6)
  ret i32 %7
}

; Function Attrs: mustprogress nounwind uwtable
define internal noundef ptr @_ZL14lodepng_mallocm(i64 noundef %0) #3 {
  %2 = alloca i64, align 8
  store i64 %0, ptr %2, align 8, !tbaa !17
  %3 = load i64, ptr %2, align 8, !tbaa !17
  %4 = call noalias ptr @malloc(i64 noundef %3) #18
  ret ptr %4
}

; Function Attrs: mustprogress uwtable
define internal noundef i32 @_ZL7deflatePPhPmPKhmPK23LodePNGCompressSettings(ptr noundef %0, ptr noundef %1, ptr noundef %2, i64 noundef %3, ptr noundef %4) #0 {
  %6 = alloca i32, align 4
  %7 = alloca ptr, align 8
  %8 = alloca ptr, align 8
  %9 = alloca ptr, align 8
  %10 = alloca i64, align 8
  %11 = alloca ptr, align 8
  %12 = alloca i32, align 4
  store ptr %0, ptr %7, align 8, !tbaa !3
  store ptr %1, ptr %8, align 8, !tbaa !9
  store ptr %2, ptr %9, align 8, !tbaa !11
  store i64 %3, ptr %10, align 8, !tbaa !17
  store ptr %4, ptr %11, align 8, !tbaa !73
  %13 = load ptr, ptr %11, align 8, !tbaa !73
  %14 = getelementptr inbounds nuw %struct.LodePNGCompressSettings, ptr %13, i32 0, i32 7
  %15 = load ptr, ptr %14, align 8, !tbaa !81
  %16 = icmp ne ptr %15, null
  br i1 %16, label %17, label %30

17:                                               ; preds = %5
  call void @llvm.lifetime.start.p0(i64 4, ptr %12) #17
  %18 = load ptr, ptr %11, align 8, !tbaa !73
  %19 = getelementptr inbounds nuw %struct.LodePNGCompressSettings, ptr %18, i32 0, i32 7
  %20 = load ptr, ptr %19, align 8, !tbaa !81
  %21 = load ptr, ptr %7, align 8, !tbaa !3
  %22 = load ptr, ptr %8, align 8, !tbaa !9
  %23 = load ptr, ptr %9, align 8, !tbaa !11
  %24 = load i64, ptr %10, align 8, !tbaa !17
  %25 = load ptr, ptr %11, align 8, !tbaa !73
  %26 = call noundef i32 %20(ptr noundef %21, ptr noundef %22, ptr noundef %23, i64 noundef %24, ptr noundef %25)
  store i32 %26, ptr %12, align 4, !tbaa !15
  %27 = load i32, ptr %12, align 4, !tbaa !15
  %28 = icmp ne i32 %27, 0
  %29 = select i1 %28, i32 111, i32 0
  store i32 %29, ptr %6, align 4
  call void @llvm.lifetime.end.p0(i64 4, ptr %12) #17
  br label %37

30:                                               ; preds = %5
  %31 = load ptr, ptr %7, align 8, !tbaa !3
  %32 = load ptr, ptr %8, align 8, !tbaa !9
  %33 = load ptr, ptr %9, align 8, !tbaa !11
  %34 = load i64, ptr %10, align 8, !tbaa !17
  %35 = load ptr, ptr %11, align 8, !tbaa !73
  %36 = call noundef i32 @_Z15lodepng_deflatePPhPmPKhmPK23LodePNGCompressSettings(ptr noundef %31, ptr noundef %32, ptr noundef %33, i64 noundef %34, ptr noundef %35)
  store i32 %36, ptr %6, align 4
  br label %37

37:                                               ; preds = %30, %17
  %38 = load i32, ptr %6, align 4
  ret i32 %38
}

; Function Attrs: mustprogress uwtable
define noundef i32 @_Z21lodepng_zlib_compressPPhPmPKhmPK23LodePNGCompressSettings(ptr noundef %0, ptr noundef %1, ptr noundef %2, i64 noundef %3, ptr noundef %4) #0 {
  %6 = alloca ptr, align 8
  %7 = alloca ptr, align 8
  %8 = alloca ptr, align 8
  %9 = alloca i64, align 8
  %10 = alloca ptr, align 8
  %11 = alloca i64, align 8
  %12 = alloca i32, align 4
  %13 = alloca ptr, align 8
  %14 = alloca i64, align 8
  %15 = alloca i32, align 4
  %16 = alloca i32, align 4
  %17 = alloca i32, align 4
  %18 = alloca i32, align 4
  %19 = alloca i32, align 4
  %20 = alloca i32, align 4
  store ptr %0, ptr %6, align 8, !tbaa !3
  store ptr %1, ptr %7, align 8, !tbaa !9
  store ptr %2, ptr %8, align 8, !tbaa !11
  store i64 %3, ptr %9, align 8, !tbaa !17
  store ptr %4, ptr %10, align 8, !tbaa !73
  call void @llvm.lifetime.start.p0(i64 8, ptr %11) #17
  call void @llvm.lifetime.start.p0(i64 4, ptr %12) #17
  call void @llvm.lifetime.start.p0(i64 8, ptr %13) #17
  store ptr null, ptr %13, align 8, !tbaa !11
  call void @llvm.lifetime.start.p0(i64 8, ptr %14) #17
  store i64 0, ptr %14, align 8, !tbaa !17
  %21 = load ptr, ptr %8, align 8, !tbaa !11
  %22 = load i64, ptr %9, align 8, !tbaa !17
  %23 = load ptr, ptr %10, align 8, !tbaa !73
  %24 = call noundef i32 @_ZL7deflatePPhPmPKhmPK23LodePNGCompressSettings(ptr noundef %13, ptr noundef %14, ptr noundef %21, i64 noundef %22, ptr noundef %23)
  store i32 %24, ptr %12, align 4, !tbaa !15
  %25 = load ptr, ptr %6, align 8, !tbaa !3
  store ptr null, ptr %25, align 8, !tbaa !11
  %26 = load ptr, ptr %7, align 8, !tbaa !9
  store i64 0, ptr %26, align 8, !tbaa !17
  %27 = load i32, ptr %12, align 4, !tbaa !15
  %28 = icmp ne i32 %27, 0
  br i1 %28, label %42, label %29

29:                                               ; preds = %5
  %30 = load i64, ptr %14, align 8, !tbaa !17
  %31 = add i64 %30, 6
  %32 = load ptr, ptr %7, align 8, !tbaa !9
  store i64 %31, ptr %32, align 8, !tbaa !17
  %33 = load ptr, ptr %7, align 8, !tbaa !9
  %34 = load i64, ptr %33, align 8, !tbaa !17
  %35 = call noundef ptr @_ZL14lodepng_mallocm(i64 noundef %34)
  %36 = load ptr, ptr %6, align 8, !tbaa !3
  store ptr %35, ptr %36, align 8, !tbaa !11
  %37 = load ptr, ptr %6, align 8, !tbaa !3
  %38 = load ptr, ptr %37, align 8, !tbaa !11
  %39 = icmp ne ptr %38, null
  br i1 %39, label %41, label %40

40:                                               ; preds = %29
  store i32 83, ptr %12, align 4, !tbaa !15
  br label %41

41:                                               ; preds = %40, %29
  br label %42

42:                                               ; preds = %41, %5
  %43 = load i32, ptr %12, align 4, !tbaa !15
  %44 = icmp ne i32 %43, 0
  br i1 %44, label %101, label %45

45:                                               ; preds = %42
  call void @llvm.lifetime.start.p0(i64 4, ptr %15) #17
  %46 = load ptr, ptr %8, align 8, !tbaa !11
  %47 = load i64, ptr %9, align 8, !tbaa !17
  %48 = trunc i64 %47 to i32
  %49 = call noundef i32 @_ZL7adler32PKhj(ptr noundef %46, i32 noundef %48)
  store i32 %49, ptr %15, align 4, !tbaa !15
  call void @llvm.lifetime.start.p0(i64 4, ptr %16) #17
  store i32 120, ptr %16, align 4, !tbaa !15
  call void @llvm.lifetime.start.p0(i64 4, ptr %17) #17
  store i32 0, ptr %17, align 4, !tbaa !15
  call void @llvm.lifetime.start.p0(i64 4, ptr %18) #17
  store i32 0, ptr %18, align 4, !tbaa !15
  call void @llvm.lifetime.start.p0(i64 4, ptr %19) #17
  %50 = load i32, ptr %16, align 4, !tbaa !15
  %51 = mul i32 256, %50
  %52 = load i32, ptr %18, align 4, !tbaa !15
  %53 = mul i32 %52, 32
  %54 = add i32 %51, %53
  %55 = load i32, ptr %17, align 4, !tbaa !15
  %56 = mul i32 %55, 64
  %57 = add i32 %54, %56
  store i32 %57, ptr %19, align 4, !tbaa !15
  call void @llvm.lifetime.start.p0(i64 4, ptr %20) #17
  %58 = load i32, ptr %19, align 4, !tbaa !15
  %59 = urem i32 %58, 31
  %60 = sub i32 31, %59
  store i32 %60, ptr %20, align 4, !tbaa !15
  %61 = load i32, ptr %20, align 4, !tbaa !15
  %62 = load i32, ptr %19, align 4, !tbaa !15
  %63 = add i32 %62, %61
  store i32 %63, ptr %19, align 4, !tbaa !15
  %64 = load i32, ptr %19, align 4, !tbaa !15
  %65 = lshr i32 %64, 8
  %66 = trunc i32 %65 to i8
  %67 = load ptr, ptr %6, align 8, !tbaa !3
  %68 = load ptr, ptr %67, align 8, !tbaa !11
  %69 = getelementptr inbounds i8, ptr %68, i64 0
  store i8 %66, ptr %69, align 1, !tbaa !45
  %70 = load i32, ptr %19, align 4, !tbaa !15
  %71 = and i32 %70, 255
  %72 = trunc i32 %71 to i8
  %73 = load ptr, ptr %6, align 8, !tbaa !3
  %74 = load ptr, ptr %73, align 8, !tbaa !11
  %75 = getelementptr inbounds i8, ptr %74, i64 1
  store i8 %72, ptr %75, align 1, !tbaa !45
  store i64 0, ptr %11, align 8, !tbaa !17
  br label %76

76:                                               ; preds = %90, %45
  %77 = load i64, ptr %11, align 8, !tbaa !17
  %78 = load i64, ptr %14, align 8, !tbaa !17
  %79 = icmp ne i64 %77, %78
  br i1 %79, label %80, label %93

80:                                               ; preds = %76
  %81 = load ptr, ptr %13, align 8, !tbaa !11
  %82 = load i64, ptr %11, align 8, !tbaa !17
  %83 = getelementptr inbounds nuw i8, ptr %81, i64 %82
  %84 = load i8, ptr %83, align 1, !tbaa !45
  %85 = load ptr, ptr %6, align 8, !tbaa !3
  %86 = load ptr, ptr %85, align 8, !tbaa !11
  %87 = load i64, ptr %11, align 8, !tbaa !17
  %88 = add i64 %87, 2
  %89 = getelementptr inbounds nuw i8, ptr %86, i64 %88
  store i8 %84, ptr %89, align 1, !tbaa !45
  br label %90

90:                                               ; preds = %80
  %91 = load i64, ptr %11, align 8, !tbaa !17
  %92 = add i64 %91, 1
  store i64 %92, ptr %11, align 8, !tbaa !17
  br label %76, !llvm.loop !80

93:                                               ; preds = %76
  %94 = load ptr, ptr %6, align 8, !tbaa !3
  %95 = load ptr, ptr %94, align 8, !tbaa !11
  %96 = load ptr, ptr %7, align 8, !tbaa !9
  %97 = load i64, ptr %96, align 8, !tbaa !17
  %98 = sub i64 %97, 4
  %99 = getelementptr inbounds nuw i8, ptr %95, i64 %98
  %100 = load i32, ptr %15, align 4, !tbaa !15
  call void @_ZL19lodepng_set32bitIntPhj(ptr noundef %99, i32 noundef %100)
  call void @llvm.lifetime.end.p0(i64 4, ptr %20) #17
  call void @llvm.lifetime.end.p0(i64 4, ptr %19) #17
  call void @llvm.lifetime.end.p0(i64 4, ptr %18) #17
  call void @llvm.lifetime.end.p0(i64 4, ptr %17) #17
  call void @llvm.lifetime.end.p0(i64 4, ptr %16) #17
  call void @llvm.lifetime.end.p0(i64 4, ptr %15) #17
  br label %101

101:                                              ; preds = %93, %42
  %102 = load ptr, ptr %13, align 8, !tbaa !11
  call void @_ZL12lodepng_freePv(ptr noundef %102)
  %103 = load i32, ptr %12, align 4, !tbaa !15
  call void @llvm.lifetime.end.p0(i64 8, ptr %14) #17
  call void @llvm.lifetime.end.p0(i64 8, ptr %13) #17
  call void @llvm.lifetime.end.p0(i64 4, ptr %12) #17
  call void @llvm.lifetime.end.p0(i64 8, ptr %11) #17
  ret i32 %103
}