; Function Attrs: mustprogress uwtable
define noundef range(i32 0, 112) i32 @_Z21lodepng_zlib_compressPPhPmPKhmPK23LodePNGCompressSettings(ptr noundef captures(none) initializes((0, 8)) %0, ptr noundef captures(none) initializes((0, 8)) %1, ptr noundef %2, i64 noundef %3, ptr noundef %4) local_unnamed_addr #5 {
  %6 = alloca ptr, align 8
  %7 = alloca i64, align 8
  call void @llvm.lifetime.start.p0(i64 8, ptr nonnull %6) #28
  store ptr null, ptr %6, align 8, !tbaa !7
  call void @llvm.lifetime.start.p0(i64 8, ptr nonnull %7) #28
  store i64 0, ptr %7, align 8, !tbaa !3
  %8 = getelementptr inbounds nuw i8, ptr %4, i64 32
  %9 = load ptr, ptr %8, align 8, !tbaa !165
  %.not.i = icmp eq ptr %9, null
  br i1 %.not.i, label %_ZL7deflatePPhPmPKhmPK23LodePNGCompressSettings.exit, label %10

10:                                               ; preds = %5
  %11 = call noundef i32 %9(ptr noundef nonnull %6, ptr noundef nonnull %7, ptr noundef %2, i64 noundef %3, ptr noundef nonnull %4)
  %.not14.i = icmp eq i32 %11, 0
  br i1 %.not14.i, label %_ZL7deflatePPhPmPKhmPK23LodePNGCompressSettings.exit.thread, label %_ZL7deflatePPhPmPKhmPK23LodePNGCompressSettings.exit.thread38

_ZL7deflatePPhPmPKhmPK23LodePNGCompressSettings.exit.thread38: ; preds = %10
  store ptr null, ptr %0, align 8, !tbaa !7
  store i64 0, ptr %1, align 8, !tbaa !3
  br label %.thread

_ZL7deflatePPhPmPKhmPK23LodePNGCompressSettings.exit: ; preds = %5
  %12 = call noundef i32 @_Z15lodepng_deflatePPhPmPKhmPK23LodePNGCompressSettings(ptr noundef nonnull %6, ptr noundef nonnull %7, ptr noundef %2, i64 noundef %3, ptr noundef nonnull %4)
  store ptr null, ptr %0, align 8, !tbaa !7
  store i64 0, ptr %1, align 8, !tbaa !3
  %.not = icmp eq i32 %12, 0
  br i1 %.not, label %_ZL7deflatePPhPmPKhmPK23LodePNGCompressSettings.exit.thread, label %.thread

_ZL7deflatePPhPmPKhmPK23LodePNGCompressSettings.exit.thread: ; preds = %10, %_ZL7deflatePPhPmPKhmPK23LodePNGCompressSettings.exit
  %13 = load i64, ptr %7, align 8, !tbaa !3
  %14 = add i64 %13, 6
  store i64 %14, ptr %1, align 8, !tbaa !3
  %15 = call noalias noundef ptr @malloc(i64 noundef %14) #27
  store ptr %15, ptr %0, align 8, !tbaa !7
  %.not33 = icmp eq ptr %15, null
  br i1 %.not33, label %.thread, label %16

16:                                               ; preds = %_ZL7deflatePPhPmPKhmPK23LodePNGCompressSettings.exit.thread
  %17 = trunc i64 %3 to i32
  %.not28.i.i = icmp eq i32 %17, 0
  br i1 %.not28.i.i, label %_ZL7adler32PKhj.exit, label %.lr.ph.i.i

.lr.ph.i.i:                                       ; preds = %16, %26
  %.032.i.i = phi ptr [ %scevgep38.i.i, %26 ], [ %2, %16 ]
  %.01831.i.i = phi i32 [ %31, %26 ], [ 0, %16 ]
  %.02030.i.i = phi i32 [ %30, %26 ], [ 1, %16 ]
  %.02229.i.i = phi i32 [ %27, %26 ], [ %17, %16 ]
  %18 = call i32 @llvm.umin.i32(i32 %.02229.i.i, i32 5552)
  br label %19

19:                                               ; preds = %19, %.lr.ph.i.i
  %.127.i.i = phi ptr [ %.032.i.i, %.lr.ph.i.i ], [ %20, %19 ]
  %.01726.i.i = phi i32 [ 0, %.lr.ph.i.i ], [ %25, %19 ]
  %.11925.i.i = phi i32 [ %.01831.i.i, %.lr.ph.i.i ], [ %24, %19 ]
  %.12124.i.i = phi i32 [ %.02030.i.i, %.lr.ph.i.i ], [ %23, %19 ]
  %20 = getelementptr inbounds nuw i8, ptr %.127.i.i, i64 1
  %21 = load i8, ptr %.127.i.i, align 1, !tbaa !18
  %22 = zext i8 %21 to i32
  %23 = add i32 %.12124.i.i, %22
  %24 = add i32 %23, %.11925.i.i
  %25 = add i32 %.01726.i.i, 1
  %.not23.i.i = icmp eq i32 %25, %18
  br i1 %.not23.i.i, label %26, label %19, !llvm.loop !163

26:                                               ; preds = %19
  %27 = sub i32 %.02229.i.i, %18
  %scevgep.i.i = getelementptr i8, ptr %.032.i.i, i64 1
  %28 = zext nneg i32 %18 to i64
  %29 = getelementptr i8, ptr %scevgep.i.i, i64 %28
  %scevgep38.i.i = getelementptr i8, ptr %29, i64 -1
  %30 = urem i32 %23, 65521
  %31 = urem i32 %24, 65521
  %.not.i.i = icmp eq i32 %27, 0
  br i1 %.not.i.i, label %._crit_edge.loopexit.i.i, label %.lr.ph.i.i, !llvm.loop !164

._crit_edge.loopexit.i.i:                         ; preds = %26
  %32 = shl nuw i32 %31, 16
  %33 = or disjoint i32 %32, %30
  br label %_ZL7adler32PKhj.exit

_ZL7adler32PKhj.exit:                             ; preds = %16, %._crit_edge.loopexit.i.i
  %34 = phi i32 [ 1, %16 ], [ %33, %._crit_edge.loopexit.i.i ]
  store i8 120, ptr %15, align 1, !tbaa !18
  %35 = getelementptr inbounds nuw i8, ptr %15, i64 1
  store i8 1, ptr %35, align 1, !tbaa !18
  %.not3548 = icmp eq i64 %13, 0
  br i1 %.not3548, label %._crit_edge, label %.lr.ph

.lr.ph:                                           ; preds = %_ZL7adler32PKhj.exit, %.lr.ph
  %.049 = phi i64 [ %42, %.lr.ph ], [ 0, %_ZL7adler32PKhj.exit ]
  %36 = load ptr, ptr %6, align 8, !tbaa !7
  %37 = getelementptr inbounds nuw i8, ptr %36, i64 %.049
  %38 = load i8, ptr %37, align 1, !tbaa !18
  %39 = load ptr, ptr %0, align 8, !tbaa !7
  %40 = getelementptr i8, ptr %39, i64 %.049
  %41 = getelementptr i8, ptr %40, i64 2
  store i8 %38, ptr %41, align 1, !tbaa !18
  %42 = add i64 %.049, 1
  %43 = load i64, ptr %7, align 8, !tbaa !3
  %.not35 = icmp eq i64 %42, %43
  br i1 %.not35, label %._crit_edge.loopexit, label %.lr.ph, !llvm.loop !166

._crit_edge.loopexit:                             ; preds = %.lr.ph
  %.pre = load ptr, ptr %0, align 8, !tbaa !7
  %.pre53 = load i64, ptr %1, align 8, !tbaa !3
  br label %._crit_edge

._crit_edge:                                      ; preds = %._crit_edge.loopexit, %_ZL7adler32PKhj.exit
  %44 = phi i64 [ %.pre53, %._crit_edge.loopexit ], [ 6, %_ZL7adler32PKhj.exit ]
  %45 = phi ptr [ %.pre, %._crit_edge.loopexit ], [ %15, %_ZL7adler32PKhj.exit ]
  %46 = getelementptr i8, ptr %45, i64 %44
  %47 = getelementptr i8, ptr %46, i64 -4
  %48 = lshr i32 %34, 24
  %49 = trunc nuw i32 %48 to i8
  store i8 %49, ptr %47, align 1, !tbaa !18
  %50 = lshr i32 %34, 16
  %51 = trunc i32 %50 to i8
  %52 = getelementptr i8, ptr %46, i64 -3
  store i8 %51, ptr %52, align 1, !tbaa !18
  %53 = lshr i32 %34, 8
  %54 = trunc i32 %53 to i8
  %55 = getelementptr i8, ptr %46, i64 -2
  store i8 %54, ptr %55, align 1, !tbaa !18
  %56 = trunc i32 %34 to i8
  %57 = getelementptr i8, ptr %46, i64 -1
  store i8 %56, ptr %57, align 1, !tbaa !18
  br label %.thread

.thread:                                          ; preds = %_ZL7deflatePPhPmPKhmPK23LodePNGCompressSettings.exit.thread, %_ZL7deflatePPhPmPKhmPK23LodePNGCompressSettings.exit.thread38, %_ZL7deflatePPhPmPKhmPK23LodePNGCompressSettings.exit, %._crit_edge
  %.03144 = phi i32 [ 0, %._crit_edge ], [ 111, %_ZL7deflatePPhPmPKhmPK23LodePNGCompressSettings.exit.thread38 ], [ %12, %_ZL7deflatePPhPmPKhmPK23LodePNGCompressSettings.exit ], [ 83, %_ZL7deflatePPhPmPKhmPK23LodePNGCompressSettings.exit.thread ]
  %58 = load ptr, ptr %6, align 8, !tbaa !7
  call void @free(ptr noundef %58) #28
  call void @llvm.lifetime.end.p0(i64 8, ptr nonnull %7) #28
  call void @llvm.lifetime.end.p0(i64 8, ptr nonnull %6) #28
  ret i32 %.03144
}